target datalayout = "e-m:e-p270:32:32-p271:32:32-p272:64:64-i64:64-i128:128-f80:128-n8:16:32:64-S128"
target triple = "x86_64-pc-linux-gnu"

%class.OopIterateClosure = type { %class.OopClosure, ptr }
%class.OopClosure = type { ptr }
%class.BoolObjectClosure = type { ptr }
%class.G1IsAliveClosure = type { %class.BoolObjectClosure, ptr, ptr }
%class.TimeInstant = type { %class.CompositeCounterRepresentation }
%class.CompositeCounterRepresentation = type { %class.Representation }
%class.Representation = type { %class.PairRep }
%class.PairRep = type { i64, i64 }
%class.G1FullGCAdjustTask = type { %class.G1FullGCTask, %class.G1RootProcessor, %"class.WeakProcessor::Task", %class.G1HeapRegionClaimer, %class.G1AdjustClosure }
%class.G1FullGCTask = type { %class.WorkerTask.base, ptr }
%class.WorkerTask.base = type <{ ptr, ptr, i32 }>
%class.G1RootProcessor = type { ptr, %class.SubTasksDone, %class.StrongRootsScope, %class.OopStorageSetStrongParState }
%class.SubTasksDone = type <{ ptr, i32, [4 x i8] }>
%class.StrongRootsScope = type { i32 }
%class.OopStorageSetStrongParState = type { %class.OopStorageSetParState }
%class.OopStorageSetParState = type { %struct.ValueObjArray }
%struct.ValueObjArray = type { [5 x ptr], %class.ValueObjBlock }
%class.ValueObjBlock = type { %"class.OopStorage::ParState", %class.ValueObjBlock.7 }
%"class.OopStorage::ParState" = type { %"class.OopStorage::BasicParState" }
%"class.OopStorage::BasicParState" = type { ptr, ptr, i64, i64, i32, i8, i64 }
%class.ValueObjBlock.7 = type { %"class.OopStorage::ParState", %class.ValueObjBlock.8 }
%class.ValueObjBlock.8 = type { %"class.OopStorage::ParState", %class.ValueObjBlock.9 }
%class.ValueObjBlock.9 = type { %"class.OopStorage::ParState", %class.ValueObjBlock.10 }
%class.ValueObjBlock.10 = type <{ %"class.OopStorage::ParState", %class.ValueObjBlock.11, [7 x i8] }>
%class.ValueObjBlock.11 = type { i8 }
%"class.WeakProcessor::Task" = type { ptr, i32, %class.OopStorageSetWeakParState }
%class.OopStorageSetWeakParState = type { %class.OopStorageSetParState.13 }
%class.OopStorageSetParState.13 = type { %struct.ValueObjArray.14 }
%struct.ValueObjArray.14 = type { [10 x ptr], %class.ValueObjBlock.15 }
%class.ValueObjBlock.15 = type { %"class.OopStorage::ParState", %class.ValueObjBlock.16 }
%class.ValueObjBlock.16 = type { %"class.OopStorage::ParState", %class.ValueObjBlock.17 }
%class.ValueObjBlock.17 = type { %"class.OopStorage::ParState", %class.ValueObjBlock.18 }
%class.ValueObjBlock.18 = type { %"class.OopStorage::ParState", %class.ValueObjBlock.19 }
%class.ValueObjBlock.19 = type { %"class.OopStorage::ParState", %class.ValueObjBlock }
%class.G1HeapRegionClaimer = type { i32, i32, ptr }
%class.G1AdjustClosure = type { %class.BasicOopIterateClosure, ptr }
%class.BasicOopIterateClosure = type { %class.OopIterateClosure }
%class.G1FullCollector = type { ptr, %class.G1FullGCScope, i32, i8, i8, ptr, ptr, %class.GenericTaskQueueSet, %class.GenericTaskQueueSet.20, %class.PreservedMarksSet, %class.G1FullGCCompactionPoint, %class.G1FullGCCompactionPoint, %class.G1IsAliveClosure, %class.ReferenceProcessorIsAliveMutator, ptr, %class.GrowableArrayCHeap, %class.G1FullGCSubjectToDiscoveryClosure, %class.ReferenceProcessorSubjectToDiscoveryMutator, %class.G1FullGCHeapRegionAttr, ptr }
%class.G1FullGCScope = type { [8 x i8], %class.ResourceMark, i8, ptr, %class.SvcGCMarker, %class.STWGCTimer, ptr, %class.IsSTWGCActiveMark, %class.G1FullGCJFRTracerMark, %class.ClearedAllSoftRefs, %class.G1FullGCMonitoringScope, %class.G1HeapPrinterMark, i64 }
%class.ResourceMark = type { %class.ResourceMarkImpl }
%class.ResourceMarkImpl = type { ptr, %"class.ResourceArea::SavedState" }
%"class.ResourceArea::SavedState" = type { ptr, ptr, ptr, i64 }
%class.SvcGCMarker = type { i8, %class.JvmtiGCMarker }
%class.JvmtiGCMarker = type { i8 }
%class.STWGCTimer = type { %class.GCTimer }
%class.GCTimer = type { ptr, %class.TimeInstant, %class.TimeInstant, %class.TimePartitions }
%class.TimePartitions = type { ptr, %class.PhasesStack, %class.TimeInterval, %class.TimeInterval }
%class.PhasesStack = type { [6 x i32], i32 }
%class.TimeInterval = type { %class.CompositeCounterRepresentation }
%class.IsSTWGCActiveMark = type { i8 }
%class.G1FullGCJFRTracerMark = type { %class.G1JFRTracerMark }
%class.G1JFRTracerMark = type { ptr, ptr }
%class.ClearedAllSoftRefs = type { i8, ptr }
%class.G1FullGCMonitoringScope = type { %class.G1MonitoringScope }
%class.G1MonitoringScope = type { ptr, %class.TraceCollectorStats, %class.TraceMemoryManagerStats }
%class.TraceCollectorStats = type { %class.PerfTraceTimedEvent, ptr }
%class.PerfTraceTimedEvent = type { %class.PerfTraceTime, ptr }
%class.PerfTraceTime = type { %class.elapsedTimer, ptr }
%class.elapsedTimer = type <{ i64, i64, i8, [7 x i8] }>
%class.TraceMemoryManagerStats = type { ptr, i32, ptr, i8, i8, i8, i8, i8, i8, i8, i8 }
%class.G1HeapPrinterMark = type { ptr, %class.G1HeapTransition }
%class.G1HeapTransition = type { ptr, %"struct.G1HeapTransition::Data" }
%"struct.G1HeapTransition::Data" = type { i64, i64, i64, i64, %class.MetaspaceCombinedStats, ptr, ptr }
%class.MetaspaceCombinedStats = type { %class.MetaspaceStats, %class.MetaspaceStats, %class.MetaspaceStats }
%class.MetaspaceStats = type { i64, i64, i64 }
%class.GenericTaskQueueSet = type { %class.TaskQueueSetSuperImpl, i32, ptr }
%class.TaskQueueSetSuperImpl = type { %class.TaskQueueSetSuper }
%class.TaskQueueSetSuper = type { ptr }
%class.GenericTaskQueueSet.20 = type { %class.TaskQueueSetSuperImpl, i32, ptr }
%class.PreservedMarksSet = type { i8, i32, ptr }
%class.G1FullGCCompactionPoint = type { ptr, ptr, ptr, ptr, ptr, %class.GrowableArrayIterator }
%class.GrowableArrayIterator = type <{ ptr, i32, [4 x i8] }>
%class.ReferenceProcessorIsAliveMutator = type { ptr, ptr }
%class.GrowableArrayCHeap = type { %class.GrowableArrayWithAllocator.21 }
%class.GrowableArrayWithAllocator.21 = type { %class.GrowableArrayView.4 }
%class.GrowableArrayView.4 = type { %class.GrowableArrayBase, ptr }
%class.GrowableArrayBase = type { i32, i32 }
%class.G1FullGCSubjectToDiscoveryClosure = type { %class.BoolObjectClosure }
%class.ReferenceProcessorSubjectToDiscoveryMutator = type { ptr, ptr }
%class.G1FullGCHeapRegionAttr = type { %class.G1BiasedMappedArray.base.23, [4 x i8] }
%class.G1BiasedMappedArray.base.23 = type { %class.G1BiasedMappedArrayBase.base }
%class.G1BiasedMappedArrayBase.base = type <{ ptr, ptr, ptr, i64, ptr, i64, i32 }>
%class.WorkerTask = type <{ ptr, ptr, i32, [4 x i8] }>

@.str = private unnamed_addr constant [10 x i8] c"G1 Adjust\00", align 1
@_ZTV18G1FullGCAdjustTask = hidden unnamed_addr constant { [3 x ptr] } { [3 x ptr] [ptr null, ptr null, ptr @_ZN18G1FullGCAdjustTask4workEj] }, align 8
@_ZTV12G1FullGCTask = linkonce_odr hidden unnamed_addr constant { [3 x ptr] } { [3 x ptr] [ptr null, ptr null, ptr @__cxa_pure_virtual] }, comdat, align 8
@_ZTV10WorkerTask = linkonce_odr hidden unnamed_addr constant { [3 x ptr] } { [3 x ptr] [ptr null, ptr null, ptr @__cxa_pure_virtual] }, comdat, align 8
@_ZN8Universe14_collectedHeapE = external global ptr, align 8
@_ZTV10OopClosure = linkonce_odr hidden unnamed_addr constant { [4 x ptr] } { [4 x ptr] [ptr null, ptr null, ptr @__cxa_pure_virtual, ptr @__cxa_pure_virtual] }, comdat, align 8

; Function Attrs: mustprogress nounwind uwtable
define linkonce_odr hidden void @_ZN10OopClosureC2Ev(ptr noundef nonnull align 8 dereferenceable(8) %0) unnamed_addr #1 comdat align 2 {
  %2 = alloca ptr, align 8
  store ptr %0, ptr %2, align 8
  %3 = load ptr, ptr %2, align 8
  store ptr getelementptr inbounds inrange(-16, 16) ({ [4 x ptr] }, ptr @_ZTV10OopClosure, i32 0, i32 0, i32 2), ptr %3, align 8
  ret void
}

; Function Attrs: mustprogress nounwind uwtable
define linkonce_odr hidden void @_ZN17OopIterateClosureC2EP19ReferenceDiscoverer(ptr noundef nonnull align 8 dereferenceable(16) %0, ptr noundef %1) unnamed_addr #1 comdat align 2 {
  %3 = alloca ptr, align 8
  %4 = alloca ptr, align 8
  store ptr %0, ptr %3, align 8
  store ptr %1, ptr %4, align 8
  %5 = load ptr, ptr %3, align 8
  call void @_ZN10OopClosureC2Ev(ptr noundef nonnull align 8 dereferenceable(8) %5) #9
  store ptr getelementptr inbounds inrange(-16, 64) ({ [10 x ptr] }, ptr @_ZTV17OopIterateClosure, i32 0, i32 0, i32 2), ptr %5, align 8
  %6 = getelementptr inbounds %class.OopIterateClosure, ptr %5, i32 0, i32 1
  %7 = load ptr, ptr %4, align 8
  store ptr %7, ptr %6, align 8
  ret void
}

; Function Attrs: mustprogress nounwind uwtable
define linkonce_odr hidden noundef ptr @_ZN8Universe4heapEv() #1 comdat align 2 {
  %1 = load ptr, ptr @_ZN8Universe14_collectedHeapE, align 8
  ret ptr %1
}

; Function Attrs: mustprogress nounwind uwtable
define linkonce_odr hidden void @_ZN22BasicOopIterateClosureC2EP19ReferenceDiscoverer(ptr noundef nonnull align 8 dereferenceable(16) %0, ptr noundef %1) unnamed_addr #1 comdat align 2 {
  %3 = alloca ptr, align 8
  %4 = alloca ptr, align 8
  store ptr %0, ptr %3, align 8
  store ptr %1, ptr %4, align 8
  %5 = load ptr, ptr %3, align 8
  %6 = load ptr, ptr %4, align 8
  call void @_ZN17OopIterateClosureC2EP19ReferenceDiscoverer(ptr noundef nonnull align 8 dereferenceable(16) %5, ptr noundef %6)
  store ptr getelementptr inbounds inrange(-16, 64) ({ [10 x ptr] }, ptr @_ZTV22BasicOopIterateClosure, i32 0, i32 0, i32 2), ptr %5, align 8
  ret void
}

; Function Attrs: mustprogress nounwind uwtable
define linkonce_odr hidden noundef ptr @_ZN13CollectedHeap10named_heapI15G1CollectedHeapEEPT_NS_4NameE(i32 noundef %0) #1 comdat align 2 {
  %2 = alloca i32, align 4
  %3 = alloca ptr, align 8
  store i32 %0, ptr %2, align 4
  %4 = call noundef ptr @_ZN8Universe4heapEv()
  store ptr %4, ptr %3, align 8
  %5 = load ptr, ptr %3, align 8
  ret ptr %5
}

; Function Attrs: mustprogress nounwind uwtable
define linkonce_odr hidden void @_ZN10WorkerTaskC2EPKc(ptr noundef nonnull align 8 dereferenceable(20) %0, ptr noundef %1) unnamed_addr #1 comdat align 2 {
  %3 = alloca ptr, align 8
  %4 = alloca ptr, align 8
  store ptr %0, ptr %3, align 8
  store ptr %1, ptr %4, align 8
  %5 = load ptr, ptr %3, align 8
  store ptr getelementptr inbounds inrange(-16, 8) ({ [3 x ptr] }, ptr @_ZTV10WorkerTask, i32 0, i32 0, i32 2), ptr %5, align 8
  %6 = getelementptr inbounds %class.WorkerTask, ptr %5, i32 0, i32 1
  %7 = load ptr, ptr %4, align 8
  store ptr %7, ptr %6, align 8
  %8 = getelementptr inbounds %class.WorkerTask, ptr %5, i32 0, i32 2
  %9 = call noundef i32 @_ZN4GCId20current_or_undefinedEv()
  store i32 %9, ptr %8, align 8
  ret void
}

; Function Attrs: mustprogress nounwind uwtable
define linkonce_odr hidden void @_ZN15G1AdjustClosureC2EP15G1FullCollector(ptr noundef nonnull align 8 dereferenceable(24) %0, ptr noundef %1) unnamed_addr #1 comdat align 2 {
  %3 = alloca ptr, align 8
  %4 = alloca ptr, align 8
  store ptr %0, ptr %3, align 8
  store ptr %1, ptr %4, align 8
  %5 = load ptr, ptr %3, align 8
  call void @_ZN22BasicOopIterateClosureC2EP19ReferenceDiscoverer(ptr noundef nonnull align 8 dereferenceable(16) %5, ptr noundef null)
  store ptr getelementptr inbounds inrange(-16, 64) ({ [10 x ptr] }, ptr @_ZTV15G1AdjustClosure, i32 0, i32 0, i32 2), ptr %5, align 8
  %6 = getelementptr inbounds %class.G1AdjustClosure, ptr %5, i32 0, i32 1
  %7 = load ptr, ptr %4, align 8
  store ptr %7, ptr %6, align 8
  ret void
}

; Function Attrs: mustprogress nounwind uwtable
define linkonce_odr hidden noundef i32 @_ZN15G1FullCollector7workersEv(ptr noundef nonnull align 8 dereferenceable(824) %0) #1 comdat align 2 {
  %2 = alloca ptr, align 8
  store ptr %0, ptr %2, align 8
  %3 = load ptr, ptr %2, align 8
  %4 = getelementptr inbounds %class.G1FullCollector, ptr %3, i32 0, i32 2
  %5 = load i32, ptr %4, align 8
  ret i32 %5
}

; Function Attrs: mustprogress nounwind uwtable
define linkonce_odr hidden noundef ptr @_ZN15G1CollectedHeap4heapEv() #1 comdat align 2 {
  %1 = call noundef ptr @_ZN13CollectedHeap10named_heapI15G1CollectedHeapEEPT_NS_4NameE(i32 noundef 3)
  ret ptr %1
}

; Function Attrs: mustprogress nounwind uwtable
define linkonce_odr hidden void @_ZN12G1FullGCTaskC2EPKcP15G1FullCollector(ptr noundef nonnull align 8 dereferenceable(32) %0, ptr noundef %1, ptr noundef %2) unnamed_addr #1 comdat align 2 {
  %4 = alloca ptr, align 8
  %5 = alloca ptr, align 8
  %6 = alloca ptr, align 8
  store ptr %0, ptr %4, align 8
  store ptr %1, ptr %5, align 8
  store ptr %2, ptr %6, align 8
  %7 = load ptr, ptr %4, align 8
  %8 = load ptr, ptr %5, align 8
  call void @_ZN10WorkerTaskC2EPKc(ptr noundef nonnull align 8 dereferenceable(20) %7, ptr noundef %8)
  store ptr getelementptr inbounds inrange(-16, 8) ({ [3 x ptr] }, ptr @_ZTV12G1FullGCTask, i32 0, i32 0, i32 2), ptr %7, align 8
  %9 = getelementptr inbounds %class.G1FullGCTask, ptr %7, i32 0, i32 1
  %10 = load ptr, ptr %6, align 8
  store ptr %10, ptr %9, align 8
  ret void
}

; Function Attrs: mustprogress nounwind uwtable
define hidden void @_ZN18G1FullGCAdjustTaskC2EP15G1FullCollector(ptr noundef nonnull align 8 dereferenceable(976) %0, ptr noundef %1) unnamed_addr #1 align 2 {
  %3 = alloca ptr, align 8
  %4 = alloca ptr, align 8
  store ptr %0, ptr %3, align 8
  store ptr %1, ptr %4, align 8
  %5 = load ptr, ptr %3, align 8
  %6 = load ptr, ptr %4, align 8
  call void @_ZN12G1FullGCTaskC2EPKcP15G1FullCollector(ptr noundef nonnull align 8 dereferenceable(32) %5, ptr noundef @.str, ptr noundef %6)
  store ptr getelementptr inbounds inrange(-16, 8) ({ [3 x ptr] }, ptr @_ZTV18G1FullGCAdjustTask, i32 0, i32 0, i32 2), ptr %5, align 8
  %7 = getelementptr inbounds %class.G1FullGCAdjustTask, ptr %5, i32 0, i32 1
  %8 = call noundef ptr @_ZN15G1CollectedHeap4heapEv()
  %9 = load ptr, ptr %4, align 8
  %10 = call noundef i32 @_ZN15G1FullCollector7workersEv(ptr noundef nonnull align 8 dereferenceable(824) %9)
  call void @_ZN15G1RootProcessorC1EP15G1CollectedHeapj(ptr noundef nonnull align 8 dereferenceable(320) %7, ptr noundef %8, i32 noundef %10)
  %11 = getelementptr inbounds %class.G1FullGCAdjustTask, ptr %5, i32 0, i32 2
  %12 = load ptr, ptr %4, align 8
  %13 = call noundef i32 @_ZN15G1FullCollector7workersEv(ptr noundef nonnull align 8 dereferenceable(824) %12)
  call void @_ZN13WeakProcessor4TaskC1Ej(ptr noundef nonnull align 8 dereferenceable(584) %11, i32 noundef %13)
  %14 = getelementptr inbounds %class.G1FullGCAdjustTask, ptr %5, i32 0, i32 3
  %15 = load ptr, ptr %4, align 8
  %16 = call noundef i32 @_ZN15G1FullCollector7workersEv(ptr noundef nonnull align 8 dereferenceable(824) %15)
  call void @_ZN19G1HeapRegionClaimerC1Ej(ptr noundef nonnull align 8 dereferenceable(16) %14, i32 noundef %16)
  %17 = getelementptr inbounds %class.G1FullGCAdjustTask, ptr %5, i32 0, i32 4
  %18 = load ptr, ptr %4, align 8
  call void @_ZN15G1AdjustClosureC2EP15G1FullCollector(ptr noundef nonnull align 8 dereferenceable(24) %17, ptr noundef %18)
  call void @_ZN20ClassLoaderDataGraph28verify_claimed_marks_clearedEi(i32 noundef 8)
  ret void
}