; Function Attrs: mustprogress nounwind uwtable
define hidden void @_ZN18G1FullGCAdjustTaskC2EP15G1FullCollector(ptr noundef nonnull align 8 dereferenceable(976) %0, ptr noundef %1) unnamed_addr #0 align 2 {
  store ptr getelementptr inbounds inrange(-16, 8) (i8, ptr @_ZTV10WorkerTask, i64 16), ptr %0, align 8
  %3 = getelementptr inbounds i8, ptr %0, i64 8
  store ptr @.str, ptr %3, align 8
  %4 = getelementptr inbounds i8, ptr %0, i64 16
  %5 = tail call noundef i32 @_ZN4GCId20current_or_undefinedEv() #9
  store i32 %5, ptr %4, align 8
  %6 = getelementptr inbounds i8, ptr %0, i64 24
  store ptr %1, ptr %6, align 8
  store ptr getelementptr inbounds inrange(-16, 8) (i8, ptr @_ZTV18G1FullGCAdjustTask, i64 16), ptr %0, align 8
  %7 = getelementptr inbounds i8, ptr %0, i64 32
  %8 = load ptr, ptr @_ZN8Universe14_collectedHeapE, align 8
  %9 = getelementptr inbounds i8, ptr %1, i64 472
  %10 = load i32, ptr %9, align 8
  tail call void @_ZN15G1RootProcessorC1EP15G1CollectedHeapj(ptr noundef nonnull align 8 dereferenceable(320) %7, ptr noundef %8, i32 noundef %10) #9
  %11 = getelementptr inbounds i8, ptr %0, i64 352
  %12 = load i32, ptr %9, align 8
  tail call void @_ZN13WeakProcessor4TaskC1Ej(ptr noundef nonnull align 8 dereferenceable(584) %11, i32 noundef %12) #9
  %13 = getelementptr inbounds i8, ptr %0, i64 936
  %14 = load i32, ptr %9, align 8
  tail call void @_ZN19G1HeapRegionClaimerC1Ej(ptr noundef nonnull align 8 dereferenceable(16) %13, i32 noundef %14) #9
  %15 = getelementptr inbounds i8, ptr %0, i64 952
  %16 = getelementptr inbounds i8, ptr %0, i64 960
  store ptr null, ptr %16, align 8
  store ptr getelementptr inbounds inrange(-16, 64) (i8, ptr @_ZTV15G1AdjustClosure, i64 16), ptr %15, align 8
  %17 = getelementptr inbounds i8, ptr %0, i64 968
  store ptr %1, ptr %17, align 8
  tail call void @_ZN20ClassLoaderDataGraph28verify_claimed_marks_clearedEi(i32 noundef 8) #9
  ret void
}